; Function Attrs: mustprogress uwtable
define internal void @_ZN7rocksdb12_GLOBAL__N_119CountedWritableFile9RangeSyncEmmRKNS_9IOOptionsEPNS_14IODebugContextE(ptr dead_on_unwind noalias writable sret(%"class.rocksdb::IOStatus") align 8 %0, ptr noundef nonnull readonly align 8 captures(none) dereferenceable(64) %1, i64 noundef %2, i64 noundef %3, ptr noundef nonnull align 8 dereferenceable(84) %4, ptr noundef %5) unnamed_addr #0 align 2 personality ptr @__gxx_personality_v0 {
  %7 = getelementptr inbounds nuw i8, ptr %1, i64 40
  %8 = load ptr, ptr %7, align 8, !tbaa !113
  %9 = load ptr, ptr %8, align 8, !tbaa !4
  %10 = getelementptr inbounds nuw i8, ptr %9, i64 184
  %11 = load ptr, ptr %10, align 8
  tail call void %11(ptr dead_on_unwind writable sret(%"class.rocksdb::IOStatus") align 8 %0, ptr noundef nonnull align 8 dereferenceable(33) %8, i64 noundef %2, i64 noundef %3, ptr noundef nonnull align 8 dereferenceable(84) %4, ptr noundef %5)
  %12 = load i8, ptr %0, align 8, !tbaa !64
  %13 = icmp eq i8 %12, 0
  br i1 %13, label %14, label %19

14:                                               ; preds = %6
  %15 = getelementptr inbounds nuw i8, ptr %1, i64 56
  %16 = load ptr, ptr %15, align 8, !tbaa !116
  %17 = getelementptr inbounds nuw i8, ptr %16, i64 68
  %18 = atomicrmw add ptr %17, i32 1 seq_cst, align 4
  br label %19

19:                                               ; preds = %6, %14
  ret void
}